target datalayout = "e-m:e-p270:32:32-p271:32:32-p272:64:64-i64:64-i128:128-f80:128-n8:16:32:64-S128"
target triple = "x86_64-unknown-linux-gnu"

%struct.inspect_extent_util_stats_verbose_s = type { ptr, i64, i64, i64, i64, i64 }

; Function Attrs: nounwind uwtable
define internal i32 @experimental_utilization_query_ctl(ptr noundef %tsd, ptr noundef %mib, i64 noundef %miblen, ptr noundef %oldp, ptr noundef %oldlenp, ptr noundef %newp, i64 noundef %newlen) #0 {
entry:
  %tsd.addr.i = alloca ptr, align 8
  %tsd.addr = alloca ptr, align 8
  %mib.addr = alloca ptr, align 8
  %miblen.addr = alloca i64, align 8
  %oldp.addr = alloca ptr, align 8
  %oldlenp.addr = alloca ptr, align 8
  %newp.addr = alloca ptr, align 8
  %newlen.addr = alloca i64, align 8
  %ret = alloca i32, align 4
  %ptr = alloca ptr, align 8
  %util_stats = alloca ptr, align 8
  store ptr %tsd, ptr %tsd.addr, align 8
  store ptr %mib, ptr %mib.addr, align 8
  store i64 %miblen, ptr %miblen.addr, align 8
  store ptr %oldp, ptr %oldp.addr, align 8
  store ptr %oldlenp, ptr %oldlenp.addr, align 8
  store ptr %newp, ptr %newp.addr, align 8
  store i64 %newlen, ptr %newlen.addr, align 8
  br label %do.body

do.body:                                          ; preds = %entry
  br label %do.end

do.end:                                           ; preds = %do.body
  %0 = load ptr, ptr %oldp.addr, align 8
  %cmp = icmp eq ptr %0, null
  br i1 %cmp, label %if.then, label %lor.lhs.false

lor.lhs.false:                                    ; preds = %do.end
  %1 = load ptr, ptr %oldlenp.addr, align 8
  %cmp1 = icmp eq ptr %1, null
  br i1 %cmp1, label %if.then, label %lor.lhs.false2

lor.lhs.false2:                                   ; preds = %lor.lhs.false
  %2 = load ptr, ptr %oldlenp.addr, align 8
  %3 = load i64, ptr %2, align 8
  %cmp3 = icmp ne i64 %3, 48
  br i1 %cmp3, label %if.then, label %lor.lhs.false4

lor.lhs.false4:                                   ; preds = %lor.lhs.false2
  %4 = load ptr, ptr %newp.addr, align 8
  %cmp5 = icmp eq ptr %4, null
  br i1 %cmp5, label %if.then, label %if.end

if.then:                                          ; preds = %lor.lhs.false4, %lor.lhs.false2, %lor.lhs.false, %do.end
  store i32 22, ptr %ret, align 4
  br label %label_return

if.end:                                           ; preds = %lor.lhs.false4
  store ptr null, ptr %ptr, align 8
  br label %do.body6

do.body6:                                         ; preds = %if.end
  %5 = load ptr, ptr %newp.addr, align 8
  %cmp7 = icmp ne ptr %5, null
  br i1 %cmp7, label %if.then8, label %if.end12

if.then8:                                         ; preds = %do.body6
  %6 = load i64, ptr %newlen.addr, align 8
  %cmp9 = icmp ne i64 %6, 8
  br i1 %cmp9, label %if.then10, label %if.end11

if.then10:                                        ; preds = %if.then8
  store i32 22, ptr %ret, align 4
  br label %label_return

if.end11:                                         ; preds = %if.then8
  %7 = load ptr, ptr %newp.addr, align 8
  %8 = load ptr, ptr %7, align 8
  store ptr %8, ptr %ptr, align 8
  br label %if.end12

if.end12:                                         ; preds = %if.end11, %do.body6
  br label %do.end13

do.end13:                                         ; preds = %if.end12
  %9 = load ptr, ptr %oldp.addr, align 8
  store ptr %9, ptr %util_stats, align 8
  %10 = load ptr, ptr %tsd.addr, align 8
  store ptr %10, ptr %tsd.addr.i, align 8
  %11 = load ptr, ptr %tsd.addr.i, align 8
  %12 = load ptr, ptr %ptr, align 8
  %13 = load ptr, ptr %util_stats, align 8
  %nfree = getelementptr inbounds %struct.inspect_extent_util_stats_verbose_s, ptr %13, i32 0, i32 1
  %14 = load ptr, ptr %util_stats, align 8
  %nregs = getelementptr inbounds %struct.inspect_extent_util_stats_verbose_s, ptr %14, i32 0, i32 2
  %15 = load ptr, ptr %util_stats, align 8
  %size = getelementptr inbounds %struct.inspect_extent_util_stats_verbose_s, ptr %15, i32 0, i32 3
  %16 = load ptr, ptr %util_stats, align 8
  %bin_nfree = getelementptr inbounds %struct.inspect_extent_util_stats_verbose_s, ptr %16, i32 0, i32 4
  %17 = load ptr, ptr %util_stats, align 8
  %bin_nregs = getelementptr inbounds %struct.inspect_extent_util_stats_verbose_s, ptr %17, i32 0, i32 5
  %18 = load ptr, ptr %util_stats, align 8
  %slabcur_addr = getelementptr inbounds %struct.inspect_extent_util_stats_verbose_s, ptr %18, i32 0, i32 0
  call void @inspect_extent_util_stats_verbose_get(ptr noundef %11, ptr noundef %12, ptr noundef %nfree, ptr noundef %nregs, ptr noundef %size, ptr noundef %bin_nfree, ptr noundef %bin_nregs, ptr noundef %slabcur_addr)
  store i32 0, ptr %ret, align 4
  br label %label_return

label_return:                                     ; preds = %do.end13, %if.then10, %if.then
  %19 = load i32, ptr %ret, align 4
  ret i32 %19
}