; Function Attrs: nounwind uwtable
define internal noundef i32 @experimental_utilization_query_ctl(ptr noundef %tsd, ptr nocapture readnone %mib, i64 %miblen, ptr noundef %oldp, ptr noundef readonly %oldlenp, ptr noundef readonly %newp, i64 noundef %newlen) #0 {
entry:
  %cmp = icmp eq ptr %oldp, null
  %cmp1 = icmp eq ptr %oldlenp, null
  %or.cond = or i1 %cmp, %cmp1
  br i1 %or.cond, label %label_return, label %lor.lhs.false2

lor.lhs.false2:                                   ; preds = %entry
  %0 = load i64, ptr %oldlenp, align 8
  %cmp3 = icmp eq i64 %0, 48
  %cmp5 = icmp ne ptr %newp, null
  %or.cond1.not12 = and i1 %cmp5, %cmp3
  %cmp9.not = icmp eq i64 %newlen, 8
  %or.cond11 = and i1 %cmp9.not, %or.cond1.not12
  br i1 %or.cond11, label %do.end13, label %label_return

do.end13:                                         ; preds = %lor.lhs.false2
  %1 = load ptr, ptr %newp, align 8
  %nfree = getelementptr inbounds i8, ptr %oldp, i64 8
  %nregs = getelementptr inbounds i8, ptr %oldp, i64 16
  %size = getelementptr inbounds i8, ptr %oldp, i64 24
  %bin_nfree = getelementptr inbounds i8, ptr %oldp, i64 32
  %bin_nregs = getelementptr inbounds i8, ptr %oldp, i64 40
  tail call void @inspect_extent_util_stats_verbose_get(ptr noundef %tsd, ptr noundef %1, ptr noundef nonnull %nfree, ptr noundef nonnull %nregs, ptr noundef nonnull %size, ptr noundef nonnull %bin_nfree, ptr noundef nonnull %bin_nregs, ptr noundef nonnull %oldp) #14
  br label %label_return

label_return:                                     ; preds = %entry, %lor.lhs.false2, %do.end13
  %ret.0 = phi i32 [ 0, %do.end13 ], [ 22, %lor.lhs.false2 ], [ 22, %entry ]
  ret i32 %ret.0
}